; Function Attrs: mustprogress nounwind uwtable
define internal ptr @_ZN4node6worker12_GLOBAL__N_120DeserializerDelegate19GetWasmModuleFromIdEPN2v87IsolateEj(ptr nocapture noundef nonnull readonly align 8 dereferenceable(56) %this, ptr noundef %isolate, i32 noundef %transfer_id) unnamed_addr #6 align 2 {
entry:
  %conv = zext i32 %transfer_id to i64
  %wasm_modules_ = getelementptr inbounds i8, ptr %this, i64 40
  %0 = load ptr, ptr %wasm_modules_, align 8
  %_M_finish.i = getelementptr inbounds i8, ptr %0, i64 8
  %1 = load ptr, ptr %_M_finish.i, align 8
  %2 = load ptr, ptr %0, align 8
  %sub.ptr.lhs.cast.i = ptrtoint ptr %1 to i64
  %sub.ptr.rhs.cast.i = ptrtoint ptr %2 to i64
  %sub.ptr.sub.i = sub i64 %sub.ptr.lhs.cast.i, %sub.ptr.rhs.cast.i
  %sub.ptr.div.i = sdiv exact i64 %sub.ptr.sub.i, 48
  %cmp.not = icmp ugt i64 %sub.ptr.div.i, %conv
  br i1 %cmp.not, label %do.end6, label %do.body5

do.body5:                                         ; preds = %entry
  tail call void @_ZN4node6AssertERKNS_13AssertionInfoE(ptr noundef nonnull align 8 dereferenceable(24) @_ZZN4node6worker12_GLOBAL__N_120DeserializerDelegate19GetWasmModuleFromIdEPN2v87IsolateEjE4args) #26
  tail call void @abort() #27
  unreachable

do.end6:                                          ; preds = %entry
  %add.ptr.i = getelementptr inbounds %"class.v8::CompiledWasmModule", ptr %2, i64 %conv
  %call10 = tail call ptr @_ZN2v816WasmModuleObject18FromCompiledModuleEPNS_7IsolateERKNS_18CompiledWasmModuleE(ptr noundef %isolate, ptr noundef nonnull align 8 dereferenceable(48) %add.ptr.i) #26
  ret ptr %call10
}